; Function Attrs: mustprogress uwtable
define dso_local void @_ZN21btMultiBodyJointMotor16finalizeMultiDofEv(ptr noundef nonnull align 8 dereferenceable(120) %0) unnamed_addr #0 align 2 {
  tail call void @_ZN21btMultiBodyConstraint25allocateJacobiansMultiDofEv(ptr noundef nonnull align 8 dereferenceable(96) %0)
  %2 = getelementptr inbounds nuw i8, ptr %0, i64 8
  %3 = load ptr, ptr %2, align 8, !tbaa !41
  %4 = getelementptr inbounds nuw i8, ptr %0, i64 24
  %5 = load i32, ptr %4, align 8, !tbaa !42
  %6 = getelementptr inbounds nuw i8, ptr %3, i64 192
  %7 = load ptr, ptr %6, align 8, !tbaa !4
  %8 = sext i32 %5 to i64
  %9 = getelementptr inbounds %struct.btMultibodyLink, ptr %7, i64 %8, i32 9
  %10 = load i32, ptr %9, align 8, !tbaa !43
  %11 = add nsw i32 %10, 6
  %12 = getelementptr inbounds nuw i8, ptr %0, i64 36
  %13 = load i32, ptr %12, align 4, !tbaa !44
  %14 = getelementptr inbounds nuw i8, ptr %0, i64 44
  %15 = getelementptr inbounds nuw i8, ptr %0, i64 80
  %16 = load ptr, ptr %15, align 8, !tbaa !45
  %17 = sext i32 %13 to i64
  %18 = getelementptr inbounds float, ptr %16, i64 %17
  %19 = zext i32 %11 to i64
  %20 = getelementptr inbounds nuw float, ptr %18, i64 %19
  store float 1.000000e+00, ptr %20, align 4, !tbaa !46
  %21 = load i32, ptr %14, align 4, !tbaa !47
  %22 = getelementptr inbounds nuw i8, ptr %0, i64 56
  store i32 %21, ptr %22, align 8, !tbaa !48
  ret void
}